target datalayout = "e-m:e-p270:32:32-p271:32:32-p272:64:64-i64:64-i128:128-f80:128-n8:16:32:64-S128"
target triple = "x86_64-pc-linux-gnu"

%struct.hwloc_topology = type { i32, i32, i32, ptr, ptr, i64, [20 x i32], [20 x i32], i64, i64, i32, ptr, i64, ptr, i64, [6 x %struct.hwloc_special_level_s], ptr, ptr, %struct.hwloc_binding_hooks, %struct.hwloc_topology_support, %struct.hwloc_infos_s, ptr, ptr, i32, ptr, ptr, i32, i32, ptr, i32, i32, ptr, i32, i32, i32, [5 x float], i32, ptr, ptr, i32, i32, ptr, i32, %struct.hwloc_numanode_attr_s, i32, i32, ptr, i64, i32, ptr, ptr, ptr }
%struct.hwloc_special_level_s = type { i32, ptr, ptr, ptr }
%struct.hwloc_binding_hooks = type { ptr, ptr, ptr, ptr, ptr, ptr, ptr, ptr, ptr, ptr, ptr, ptr, ptr, ptr, ptr, ptr, ptr, ptr, ptr, ptr, ptr, ptr, ptr, ptr }
%struct.hwloc_topology_support = type { ptr, ptr, ptr, ptr }
%struct.hwloc_infos_s = type { ptr, i32, i32 }
%struct.hwloc_numanode_attr_s = type { i64, i32, ptr }

; Function Attrs: nounwind uwtable
define hidden ptr @hwloc_alloc_heap(ptr noundef %0, i64 noundef %1) #0 {
  %3 = alloca ptr, align 8
  %4 = alloca i64, align 8
  %5 = alloca ptr, align 8
  store ptr %0, ptr %3, align 8, !tbaa !3
  store i64 %1, ptr %4, align 8, !tbaa !40
  call void @llvm.lifetime.start.p0(i64 8, ptr %5) #9
  store ptr null, ptr %5, align 8, !tbaa !48
  %6 = call i64 @sysconf(i32 noundef 30) #9
  %7 = load i64, ptr %4, align 8, !tbaa !40
  %8 = call i32 @posix_memalign(ptr noundef %5, i64 noundef %6, i64 noundef %7) #9
  %9 = call ptr @__errno_location() #8
  store i32 %8, ptr %9, align 4, !tbaa !10
  %10 = call ptr @__errno_location() #8
  %11 = load i32, ptr %10, align 4, !tbaa !10
  %12 = icmp ne i32 %11, 0
  br i1 %12, label %13, label %14

13:                                               ; preds = %2
  store ptr null, ptr %5, align 8, !tbaa !48
  br label %14

14:                                               ; preds = %13, %2
  %15 = load ptr, ptr %5, align 8, !tbaa !48
  call void @llvm.lifetime.end.p0(i64 8, ptr %5) #9
  ret ptr %15
}

; Function Attrs: nounwind uwtable
define ptr @hwloc_alloc(ptr noundef %0, i64 noundef %1) #0 {
  %3 = alloca ptr, align 8
  %4 = alloca ptr, align 8
  %5 = alloca i64, align 8
  store ptr %0, ptr %4, align 8, !tbaa !3
  store i64 %1, ptr %5, align 8, !tbaa !40
  %6 = load ptr, ptr %4, align 8, !tbaa !3
  %7 = getelementptr inbounds nuw %struct.hwloc_topology, ptr %6, i32 0, i32 18
  %8 = getelementptr inbounds nuw %struct.hwloc_binding_hooks, ptr %7, i32 0, i32 20
  %9 = load ptr, ptr %8, align 8, !tbaa !66
  %10 = icmp ne ptr %9, null
  br i1 %10, label %11, label %19

11:                                               ; preds = %2
  %12 = load ptr, ptr %4, align 8, !tbaa !3
  %13 = getelementptr inbounds nuw %struct.hwloc_topology, ptr %12, i32 0, i32 18
  %14 = getelementptr inbounds nuw %struct.hwloc_binding_hooks, ptr %13, i32 0, i32 20
  %15 = load ptr, ptr %14, align 8, !tbaa !66
  %16 = load ptr, ptr %4, align 8, !tbaa !3
  %17 = load i64, ptr %5, align 8, !tbaa !40
  %18 = call ptr %15(ptr noundef %16, i64 noundef %17)
  store ptr %18, ptr %3, align 8
  br label %23

19:                                               ; preds = %2
  %20 = load ptr, ptr %4, align 8, !tbaa !3
  %21 = load i64, ptr %5, align 8, !tbaa !40
  %22 = call ptr @hwloc_alloc_heap(ptr noundef %20, i64 noundef %21)
  store ptr %22, ptr %3, align 8
  br label %23

23:                                               ; preds = %19, %11
  %24 = load ptr, ptr %3, align 8
  ret ptr %24
}

; Function Attrs: nounwind uwtable
define internal ptr @hwloc_fix_membind(ptr noundef %0, ptr noundef %1) #0 {
  %3 = alloca ptr, align 8
  %4 = alloca ptr, align 8
  %5 = alloca ptr, align 8
  %6 = alloca ptr, align 8
  %7 = alloca ptr, align 8
  %8 = alloca i32, align 4
  store ptr %0, ptr %4, align 8, !tbaa !3
  store ptr %1, ptr %5, align 8, !tbaa !8
  call void @llvm.lifetime.start.p0(i64 8, ptr %6) #9
  %9 = load ptr, ptr %4, align 8, !tbaa !3
  %10 = call ptr @hwloc_topology_get_topology_nodeset(ptr noundef %9) #10
  store ptr %10, ptr %6, align 8, !tbaa !8
  call void @llvm.lifetime.start.p0(i64 8, ptr %7) #9
  %11 = load ptr, ptr %4, align 8, !tbaa !3
  %12 = call ptr @hwloc_topology_get_complete_nodeset(ptr noundef %11) #10
  store ptr %12, ptr %7, align 8, !tbaa !8
  %13 = load ptr, ptr %5, align 8, !tbaa !8
  %14 = call i32 @hwloc_bitmap_iszero(ptr noundef %13) #10
  %15 = icmp ne i32 %14, 0
  br i1 %15, label %16, label %18

16:                                               ; preds = %2
  %17 = call ptr @__errno_location() #8
  store i32 22, ptr %17, align 4, !tbaa !10
  store ptr null, ptr %3, align 8
  store i32 1, ptr %8, align 4
  br label %34

18:                                               ; preds = %2
  %19 = load ptr, ptr %5, align 8, !tbaa !8
  %20 = load ptr, ptr %7, align 8, !tbaa !8
  %21 = call i32 @hwloc_bitmap_isincluded(ptr noundef %19, ptr noundef %20) #10
  %22 = icmp ne i32 %21, 0
  br i1 %22, label %25, label %23

23:                                               ; preds = %18
  %24 = call ptr @__errno_location() #8
  store i32 22, ptr %24, align 4, !tbaa !10
  store ptr null, ptr %3, align 8
  store i32 1, ptr %8, align 4
  br label %34

25:                                               ; preds = %18
  %26 = load ptr, ptr %6, align 8, !tbaa !8
  %27 = load ptr, ptr %5, align 8, !tbaa !8
  %28 = call i32 @hwloc_bitmap_isincluded(ptr noundef %26, ptr noundef %27) #10
  %29 = icmp ne i32 %28, 0
  br i1 %29, label %30, label %32

30:                                               ; preds = %25
  %31 = load ptr, ptr %7, align 8, !tbaa !8
  store ptr %31, ptr %3, align 8
  store i32 1, ptr %8, align 4
  br label %34

32:                                               ; preds = %25
  %33 = load ptr, ptr %5, align 8, !tbaa !8
  store ptr %33, ptr %3, align 8
  store i32 1, ptr %8, align 4
  br label %34

34:                                               ; preds = %32, %30, %23, %16
  call void @llvm.lifetime.end.p0(i64 8, ptr %7) #9
  call void @llvm.lifetime.end.p0(i64 8, ptr %6) #9
  %35 = load ptr, ptr %3, align 8
  ret ptr %35
}

; Function Attrs: inlinehint nounwind uwtable
define internal i32 @hwloc__check_membind_policy(i32 noundef %0) #4 {
  %2 = alloca i32, align 4
  %3 = alloca i32, align 4
  store i32 %0, ptr %3, align 4, !tbaa !10
  %4 = load i32, ptr %3, align 4, !tbaa !10
  %5 = icmp eq i32 %4, 0
  br i1 %5, label %21, label %6

6:                                                ; preds = %1
  %7 = load i32, ptr %3, align 4, !tbaa !10
  %8 = icmp eq i32 %7, 1
  br i1 %8, label %21, label %9

9:                                                ; preds = %6
  %10 = load i32, ptr %3, align 4, !tbaa !10
  %11 = icmp eq i32 %10, 2
  br i1 %11, label %21, label %12

12:                                               ; preds = %9
  %13 = load i32, ptr %3, align 4, !tbaa !10
  %14 = icmp eq i32 %13, 3
  br i1 %14, label %21, label %15

15:                                               ; preds = %12
  %16 = load i32, ptr %3, align 4, !tbaa !10
  %17 = icmp eq i32 %16, 5
  br i1 %17, label %21, label %18

18:                                               ; preds = %15
  %19 = load i32, ptr %3, align 4, !tbaa !10
  %20 = icmp eq i32 %19, 4
  br i1 %20, label %21, label %22

21:                                               ; preds = %18, %15, %12, %9, %6, %1
  store i32 0, ptr %2, align 4
  br label %23

22:                                               ; preds = %18
  store i32 -1, ptr %2, align 4
  br label %23

23:                                               ; preds = %22, %21
  %24 = load i32, ptr %2, align 4
  ret i32 %24
}

; Function Attrs: nounwind uwtable
define internal ptr @hwloc_alloc_membind_by_nodeset(ptr noundef %0, i64 noundef %1, ptr noundef %2, i32 noundef %3, i32 noundef %4) #0 {
  %6 = alloca ptr, align 8
  %7 = alloca ptr, align 8
  %8 = alloca i64, align 8
  %9 = alloca ptr, align 8
  %10 = alloca i32, align 4
  %11 = alloca i32, align 4
  %12 = alloca ptr, align 8
  %13 = alloca i32, align 4
  %14 = alloca i32, align 4
  store ptr %0, ptr %7, align 8, !tbaa !3
  store i64 %1, ptr %8, align 8, !tbaa !40
  store ptr %2, ptr %9, align 8, !tbaa !8
  store i32 %3, ptr %10, align 4, !tbaa !10
  store i32 %4, ptr %11, align 4, !tbaa !10
  call void @llvm.lifetime.start.p0(i64 8, ptr %12) #9
  %15 = load i32, ptr %11, align 4, !tbaa !10
  %16 = and i32 %15, -64
  %17 = icmp ne i32 %16, 0
  br i1 %17, label %22, label %18

18:                                               ; preds = %5
  %19 = load i32, ptr %10, align 4, !tbaa !10
  %20 = call i32 @hwloc__check_membind_policy(i32 noundef %19)
  %21 = icmp slt i32 %20, 0
  br i1 %21, label %22, label %24

22:                                               ; preds = %18, %5
  %23 = call ptr @__errno_location() #8
  store i32 22, ptr %23, align 4, !tbaa !10
  store ptr null, ptr %6, align 8
  store i32 1, ptr %13, align 4
  br label %105

24:                                               ; preds = %18
  %25 = load ptr, ptr %7, align 8, !tbaa !3
  %26 = load ptr, ptr %9, align 8, !tbaa !8
  %27 = call ptr @hwloc_fix_membind(ptr noundef %25, ptr noundef %26)
  store ptr %27, ptr %9, align 8, !tbaa !8
  %28 = load ptr, ptr %9, align 8, !tbaa !8
  %29 = icmp ne ptr %28, null
  br i1 %29, label %31, label %30

30:                                               ; preds = %24
  br label %96

31:                                               ; preds = %24
  %32 = load i32, ptr %11, align 4, !tbaa !10
  %33 = and i32 %32, 8
  %34 = icmp ne i32 %33, 0
  br i1 %34, label %35, label %37

35:                                               ; preds = %31
  %36 = call ptr @__errno_location() #8
  store i32 22, ptr %36, align 4, !tbaa !10
  br label %96

37:                                               ; preds = %31
  %38 = load ptr, ptr %7, align 8, !tbaa !3
  %39 = getelementptr inbounds nuw %struct.hwloc_topology, ptr %38, i32 0, i32 18
  %40 = getelementptr inbounds nuw %struct.hwloc_binding_hooks, ptr %39, i32 0, i32 21
  %41 = load ptr, ptr %40, align 8, !tbaa !67
  %42 = icmp ne ptr %41, null
  br i1 %42, label %43, label %54

43:                                               ; preds = %37
  %44 = load ptr, ptr %7, align 8, !tbaa !3
  %45 = getelementptr inbounds nuw %struct.hwloc_topology, ptr %44, i32 0, i32 18
  %46 = getelementptr inbounds nuw %struct.hwloc_binding_hooks, ptr %45, i32 0, i32 21
  %47 = load ptr, ptr %46, align 8, !tbaa !67
  %48 = load ptr, ptr %7, align 8, !tbaa !3
  %49 = load i64, ptr %8, align 8, !tbaa !40
  %50 = load ptr, ptr %9, align 8, !tbaa !8
  %51 = load i32, ptr %10, align 4, !tbaa !10
  %52 = load i32, ptr %11, align 4, !tbaa !10
  %53 = call ptr %47(ptr noundef %48, i64 noundef %49, ptr noundef %50, i32 noundef %51, i32 noundef %52)
  store ptr %53, ptr %6, align 8
  store i32 1, ptr %13, align 4
  br label %105

54:                                               ; preds = %37
  %55 = load ptr, ptr %7, align 8, !tbaa !3
  %56 = getelementptr inbounds nuw %struct.hwloc_topology, ptr %55, i32 0, i32 18
  %57 = getelementptr inbounds nuw %struct.hwloc_binding_hooks, ptr %56, i32 0, i32 17
  %58 = load ptr, ptr %57, align 8, !tbaa !63
  %59 = icmp ne ptr %58, null
  br i1 %59, label %60, label %92

60:                                               ; preds = %54
  %61 = load ptr, ptr %7, align 8, !tbaa !3
  %62 = load i64, ptr %8, align 8, !tbaa !40
  %63 = call ptr @hwloc_alloc(ptr noundef %61, i64 noundef %62)
  store ptr %63, ptr %12, align 8, !tbaa !48
  %64 = load ptr, ptr %12, align 8, !tbaa !48
  %65 = icmp ne ptr %64, null
  br i1 %65, label %67, label %66

66:                                               ; preds = %60
  store ptr null, ptr %6, align 8
  store i32 1, ptr %13, align 4
  br label %105

67:                                               ; preds = %60
  %68 = load ptr, ptr %7, align 8, !tbaa !3
  %69 = getelementptr inbounds nuw %struct.hwloc_topology, ptr %68, i32 0, i32 18
  %70 = getelementptr inbounds nuw %struct.hwloc_binding_hooks, ptr %69, i32 0, i32 17
  %71 = load ptr, ptr %70, align 8, !tbaa !63
  %72 = load ptr, ptr %7, align 8, !tbaa !3
  %73 = load ptr, ptr %12, align 8, !tbaa !48
  %74 = load i64, ptr %8, align 8, !tbaa !40
  %75 = load ptr, ptr %9, align 8, !tbaa !8
  %76 = load i32, ptr %10, align 4, !tbaa !10
  %77 = load i32, ptr %11, align 4, !tbaa !10
  %78 = call i32 %71(ptr noundef %72, ptr noundef %73, i64 noundef %74, ptr noundef %75, i32 noundef %76, i32 noundef %77)
  %79 = icmp ne i32 %78, 0
  br i1 %79, label %80, label %90

80:                                               ; preds = %67
  %81 = load i32, ptr %11, align 4, !tbaa !10
  %82 = and i32 %81, 4
  %83 = icmp ne i32 %82, 0
  br i1 %83, label %84, label %90

84:                                               ; preds = %80
  call void @llvm.lifetime.start.p0(i64 4, ptr %14) #9
  %85 = call ptr @__errno_location() #8
  %86 = load i32, ptr %85, align 4, !tbaa !10
  store i32 %86, ptr %14, align 4, !tbaa !10
  %87 = load ptr, ptr %12, align 8, !tbaa !48
  call void @free(ptr noundef %87) #9
  %88 = load i32, ptr %14, align 4, !tbaa !10
  %89 = call ptr @__errno_location() #8
  store i32 %88, ptr %89, align 4, !tbaa !10
  store ptr null, ptr %6, align 8
  store i32 1, ptr %13, align 4
  call void @llvm.lifetime.end.p0(i64 4, ptr %14) #9
  br label %105

90:                                               ; preds = %80, %67
  %91 = load ptr, ptr %12, align 8, !tbaa !48
  store ptr %91, ptr %6, align 8
  store i32 1, ptr %13, align 4
  br label %105

92:                                               ; preds = %54
  %93 = call ptr @__errno_location() #8
  store i32 38, ptr %93, align 4, !tbaa !10
  br label %94

94:                                               ; preds = %92
  br label %95

95:                                               ; preds = %94
  br label %96

96:                                               ; preds = %95, %35, %30
  %97 = load i32, ptr %11, align 4, !tbaa !10
  %98 = and i32 %97, 4
  %99 = icmp ne i32 %98, 0
  br i1 %99, label %100, label %101

100:                                              ; preds = %96
  store ptr null, ptr %6, align 8
  store i32 1, ptr %13, align 4
  br label %105

101:                                              ; preds = %96
  %102 = load ptr, ptr %7, align 8, !tbaa !3
  %103 = load i64, ptr %8, align 8, !tbaa !40
  %104 = call ptr @hwloc_alloc(ptr noundef %102, i64 noundef %103)
  store ptr %104, ptr %6, align 8
  store i32 1, ptr %13, align 4
  br label %105

105:                                              ; preds = %101, %100, %90, %84, %66, %43, %22
  call void @llvm.lifetime.end.p0(i64 8, ptr %12) #9
  %106 = load ptr, ptr %6, align 8
  ret ptr %106
}