; Function Attrs: nounwind uwtable
define internal fastcc ptr @hwloc_alloc_membind_by_nodeset(ptr noundef %0, i64 noundef %1, ptr noundef %2, i32 noundef %3, i32 noundef %4) unnamed_addr #0 {
  %6 = alloca ptr, align 8
  %7 = alloca ptr, align 8
  %.not = icmp ugt i32 %4, 63
  %or.cond9.i = icmp ugt i32 %3, 5
  %or.cond54 = or i1 %or.cond9.i, %.not
  br i1 %or.cond54, label %8, label %10

8:                                                ; preds = %5
  %9 = tail call ptr @__errno_location() #12
  store i32 22, ptr %9, align 4, !tbaa !3
  br label %hwloc_alloc.exit49

10:                                               ; preds = %5
  %11 = tail call ptr @hwloc_topology_get_topology_nodeset(ptr noundef readonly %0) #13
  %12 = tail call ptr @hwloc_topology_get_complete_nodeset(ptr noundef readonly %0) #13
  %13 = tail call i32 @hwloc_bitmap_iszero(ptr noundef readonly %2) #13
  %.not.i = icmp eq i32 %13, 0
  br i1 %.not.i, label %14, label %hwloc_fix_membind.exit.thread.sink.split

14:                                               ; preds = %10
  %15 = tail call i32 @hwloc_bitmap_isincluded(ptr noundef readonly %2, ptr noundef %12) #13
  %.not10.i = icmp eq i32 %15, 0
  br i1 %.not10.i, label %hwloc_fix_membind.exit.thread.sink.split, label %hwloc_fix_membind.exit

hwloc_fix_membind.exit:                           ; preds = %14
  %16 = tail call i32 @hwloc_bitmap_isincluded(ptr noundef %11, ptr noundef readonly %2) #13
  %.not11.i = icmp eq i32 %16, 0
  %..i42 = select i1 %.not11.i, ptr %2, ptr %12
  %.not34 = icmp eq ptr %..i42, null
  br i1 %.not34, label %hwloc_fix_membind.exit.thread, label %17

17:                                               ; preds = %hwloc_fix_membind.exit
  %18 = and i32 %4, 8
  %.not35 = icmp eq i32 %18, 0
  br i1 %.not35, label %19, label %hwloc_fix_membind.exit.thread.sink.split

19:                                               ; preds = %17
  %20 = getelementptr inbounds nuw i8, ptr %0, i64 632
  %21 = load ptr, ptr %20, align 8, !tbaa !66
  %.not36 = icmp eq ptr %21, null
  br i1 %.not36, label %24, label %22

22:                                               ; preds = %19
  %23 = tail call ptr %21(ptr noundef nonnull %0, i64 noundef %1, ptr noundef nonnull %..i42, i32 noundef %3, i32 noundef %4) #14
  br label %hwloc_alloc.exit49

24:                                               ; preds = %19
  %25 = getelementptr inbounds nuw i8, ptr %0, i64 600
  %26 = load ptr, ptr %25, align 8, !tbaa !61
  %.not37 = icmp eq ptr %26, null
  br i1 %.not37, label %hwloc_fix_membind.exit.thread.sink.split, label %27

27:                                               ; preds = %24
  %28 = getelementptr inbounds nuw i8, ptr %0, i64 624
  %29 = load ptr, ptr %28, align 8, !tbaa !65
  %.not.i43 = icmp eq ptr %29, null
  br i1 %.not.i43, label %32, label %30

30:                                               ; preds = %27
  %31 = tail call ptr %29(ptr noundef nonnull %0, i64 noundef %1) #14
  br label %hwloc_alloc.exit

32:                                               ; preds = %27
  call void @llvm.lifetime.start.p0(i64 8, ptr nonnull %7) #14
  store ptr null, ptr %7, align 8, !tbaa !64
  %33 = tail call i64 @sysconf(i32 noundef 30) #14
  %34 = call i32 @posix_memalign(ptr noundef nonnull %7, i64 noundef %33, i64 noundef %1) #14
  %35 = tail call ptr @__errno_location() #12
  store i32 %34, ptr %35, align 4, !tbaa !3
  %.not.i.i = icmp eq i32 %34, 0
  %.pre.i.i = load ptr, ptr %7, align 8
  call void @llvm.lifetime.end.p0(i64 8, ptr nonnull %7) #14
  br i1 %.not.i.i, label %hwloc_alloc.exit, label %hwloc_alloc.exit49

hwloc_alloc.exit:                                 ; preds = %32, %30
  %.0.i44 = phi ptr [ %31, %30 ], [ %.pre.i.i, %32 ]
  %.not38 = icmp eq ptr %.0.i44, null
  br i1 %.not38, label %hwloc_alloc.exit49, label %36

36:                                               ; preds = %hwloc_alloc.exit
  %37 = load ptr, ptr %25, align 8, !tbaa !61
  %38 = call i32 %37(ptr noundef nonnull %0, ptr noundef nonnull %.0.i44, i64 noundef %1, ptr noundef nonnull %..i42, i32 noundef %3, i32 noundef %4) #14
  %.not39 = icmp eq i32 %38, 0
  %39 = and i32 %4, 4
  %.not40 = icmp eq i32 %39, 0
  %or.cond = or i1 %.not40, %.not39
  br i1 %or.cond, label %hwloc_alloc.exit49, label %40

40:                                               ; preds = %36
  %41 = tail call ptr @__errno_location() #12
  %42 = load i32, ptr %41, align 4, !tbaa !3
  call void @free(ptr noundef nonnull %.0.i44) #14
  store i32 %42, ptr %41, align 4, !tbaa !3
  br label %hwloc_alloc.exit49

hwloc_fix_membind.exit.thread.sink.split:         ; preds = %24, %17, %14, %10
  %.sink = phi i32 [ 22, %10 ], [ 22, %14 ], [ 22, %17 ], [ 38, %24 ]
  %43 = tail call ptr @__errno_location() #12
  store i32 %.sink, ptr %43, align 4, !tbaa !3
  br label %hwloc_fix_membind.exit.thread

hwloc_fix_membind.exit.thread:                    ; preds = %hwloc_fix_membind.exit.thread.sink.split, %hwloc_fix_membind.exit
  %44 = and i32 %4, 4
  %.not41 = icmp eq i32 %44, 0
  br i1 %.not41, label %45, label %hwloc_alloc.exit49

45:                                               ; preds = %hwloc_fix_membind.exit.thread
  %46 = getelementptr inbounds nuw i8, ptr %0, i64 624
  %47 = load ptr, ptr %46, align 8, !tbaa !65
  %.not.i45 = icmp eq ptr %47, null
  br i1 %.not.i45, label %50, label %48

48:                                               ; preds = %45
  %49 = tail call ptr %47(ptr noundef nonnull %0, i64 noundef %1) #14
  br label %hwloc_alloc.exit49

50:                                               ; preds = %45
  call void @llvm.lifetime.start.p0(i64 8, ptr nonnull %6) #14
  store ptr null, ptr %6, align 8, !tbaa !64
  %51 = tail call i64 @sysconf(i32 noundef 30) #14
  %52 = call i32 @posix_memalign(ptr noundef nonnull %6, i64 noundef %51, i64 noundef %1) #14
  %53 = tail call ptr @__errno_location() #12
  store i32 %52, ptr %53, align 4, !tbaa !3
  %.not.i.i47 = icmp eq i32 %52, 0
  %.pre.i.i48 = load ptr, ptr %6, align 8
  %54 = select i1 %.not.i.i47, ptr %.pre.i.i48, ptr null
  call void @llvm.lifetime.end.p0(i64 8, ptr nonnull %6) #14
  br label %hwloc_alloc.exit49

hwloc_alloc.exit49:                               ; preds = %32, %50, %48, %hwloc_fix_membind.exit.thread, %36, %hwloc_alloc.exit, %40, %22, %8
  %.0 = phi ptr [ null, %8 ], [ %23, %22 ], [ null, %40 ], [ null, %hwloc_alloc.exit ], [ %.0.i44, %36 ], [ null, %hwloc_fix_membind.exit.thread ], [ %49, %48 ], [ %54, %50 ], [ null, %32 ]
  ret ptr %.0
}